target datalayout = "e-m:e-p270:32:32-p271:32:32-p272:64:64-i64:64-i128:128-f80:128-n8:16:32:64-S128"
target triple = "x86_64-unknown-linux-gnu"

%"class.icu_75::UObject" = type { ptr }
%"class.icu_75::CollationBuilder" = type { %"class.icu_75::CollationRuleParser::Sink", ptr, ptr, ptr, ptr, ptr, %"class.icu_75::CollationRootElements", i32, ptr, i8, i8, [6 x i8], %"class.icu_75::UnicodeSet", ptr, [31 x i64], i32, %"class.icu_75::UVector32", %"class.icu_75::UVector64" }
%"class.icu_75::CollationRuleParser::Sink" = type { %"class.icu_75::UObject" }
%"class.icu_75::CollationRootElements" = type <{ ptr, i32, [4 x i8] }>
%"class.icu_75::UnicodeSet" = type <{ %"class.icu_75::UnicodeFilter", ptr, i32, i32, i8, [7 x i8], ptr, ptr, i32, [4 x i8], ptr, i32, [4 x i8], ptr, ptr, [25 x i32], [4 x i8] }>
%"class.icu_75::UnicodeFilter" = type { %"class.icu_75::UnicodeFunctor", %"class.icu_75::UnicodeMatcher" }
%"class.icu_75::UnicodeFunctor" = type { %"class.icu_75::UObject" }
%"class.icu_75::UnicodeMatcher" = type { ptr }
%"class.icu_75::UVector32" = type { %"class.icu_75::UObject", i32, i32, i32, ptr }
%"class.icu_75::UVector64" = type { %"class.icu_75::UObject", i32, i32, i32, ptr }

; Function Attrs: mustprogress uwtable
define linkonce_odr noundef signext i8 @_ZN6icu_759UVector6414ensureCapacityEiR10UErrorCode(ptr noundef nonnull align 8 dereferenceable(32) %this, i32 noundef %minimumCapacity, ptr noundef nonnull align 4 dereferenceable(4) %status) #0 comdat align 2 {
entry:
  %retval = alloca i8, align 1
  %this.addr = alloca ptr, align 8
  %minimumCapacity.addr = alloca i32, align 4
  %status.addr = alloca ptr, align 8
  store ptr %this, ptr %this.addr, align 8
  store i32 %minimumCapacity, ptr %minimumCapacity.addr, align 4
  store ptr %status, ptr %status.addr, align 8
  %this1 = load ptr, ptr %this.addr, align 8
  %0 = load i32, ptr %minimumCapacity.addr, align 4
  %cmp = icmp sge i32 %0, 0
  br i1 %cmp, label %land.lhs.true, label %if.else

land.lhs.true:                                    ; preds = %entry
  %capacity = getelementptr inbounds %"class.icu_75::UVector64", ptr %this1, i32 0, i32 2
  %1 = load i32, ptr %capacity, align 4
  %2 = load i32, ptr %minimumCapacity.addr, align 4
  %cmp2 = icmp sge i32 %1, %2
  br i1 %cmp2, label %if.then, label %if.else

if.then:                                          ; preds = %land.lhs.true
  store i8 1, ptr %retval, align 1
  br label %return

if.else:                                          ; preds = %land.lhs.true, %entry
  %3 = load i32, ptr %minimumCapacity.addr, align 4
  %4 = load ptr, ptr %status.addr, align 8
  %call = call noundef signext i8 @_ZN6icu_759UVector6414expandCapacityEiR10UErrorCode(ptr noundef nonnull align 8 dereferenceable(32) %this1, i32 noundef %3, ptr noundef nonnull align 4 dereferenceable(4) %4)
  store i8 %call, ptr %retval, align 1
  br label %return

return:                                           ; preds = %if.else, %if.then
  %5 = load i8, ptr %retval, align 1
  ret i8 %5
}

; Function Attrs: mustprogress nounwind uwtable
define linkonce_odr noundef i64 @_ZN6icu_7516CollationBuilder23changeNodePreviousIndexEli(i64 noundef %node, i32 noundef %previous) #3 comdat align 2 {
entry:
  %node.addr = alloca i64, align 8
  %previous.addr = alloca i32, align 4
  store i64 %node, ptr %node.addr, align 8
  store i32 %previous, ptr %previous.addr, align 4
  %0 = load i64, ptr %node.addr, align 8
  %and = and i64 %0, -281474708275201
  %1 = load i32, ptr %previous.addr, align 4
  %call = call noundef i64 @_ZN6icu_7516CollationBuilder21nodeFromPreviousIndexEi(i32 noundef %1)
  %or = or i64 %and, %call
  ret i64 %or
}

; Function Attrs: mustprogress nounwind uwtable
define linkonce_odr noundef i64 @_ZN6icu_7516CollationBuilder19changeNodeNextIndexEli(i64 noundef %node, i32 noundef %next) #3 comdat align 2 {
entry:
  %node.addr = alloca i64, align 8
  %next.addr = alloca i32, align 4
  store i64 %node, ptr %node.addr, align 8
  store i32 %next, ptr %next.addr, align 4
  %0 = load i64, ptr %node.addr, align 8
  %and = and i64 %0, -268435201
  %1 = load i32, ptr %next.addr, align 4
  %call = call noundef i64 @_ZN6icu_7516CollationBuilder17nodeFromNextIndexEi(i32 noundef %1)
  %or = or i64 %and, %call
  ret i64 %or
}

; Function Attrs: mustprogress nounwind uwtable
define linkonce_odr noundef i64 @_ZNK6icu_759UVector6410elementAtiEi(ptr noundef nonnull align 8 dereferenceable(32) %this, i32 noundef %index) #3 comdat align 2 {
entry:
  %this.addr = alloca ptr, align 8
  %index.addr = alloca i32, align 4
  store ptr %this, ptr %this.addr, align 8
  store i32 %index, ptr %index.addr, align 4
  %this1 = load ptr, ptr %this.addr, align 8
  %0 = load i32, ptr %index.addr, align 4
  %cmp = icmp sle i32 0, %0
  br i1 %cmp, label %land.lhs.true, label %cond.false

land.lhs.true:                                    ; preds = %entry
  %1 = load i32, ptr %index.addr, align 4
  %count = getelementptr inbounds %"class.icu_75::UVector64", ptr %this1, i32 0, i32 1
  %2 = load i32, ptr %count, align 8
  %cmp2 = icmp slt i32 %1, %2
  br i1 %cmp2, label %cond.true, label %cond.false

cond.true:                                        ; preds = %land.lhs.true
  %elements = getelementptr inbounds %"class.icu_75::UVector64", ptr %this1, i32 0, i32 4
  %3 = load ptr, ptr %elements, align 8
  %4 = load i32, ptr %index.addr, align 4
  %idxprom = sext i32 %4 to i64
  %arrayidx = getelementptr inbounds i64, ptr %3, i64 %idxprom
  %5 = load i64, ptr %arrayidx, align 8
  br label %cond.end

cond.false:                                       ; preds = %land.lhs.true, %entry
  br label %cond.end

cond.end:                                         ; preds = %cond.false, %cond.true
  %cond = phi i64 [ %5, %cond.true ], [ 0, %cond.false ]
  ret i64 %cond
}

; Function Attrs: mustprogress uwtable
define linkonce_odr void @_ZN6icu_759UVector6410addElementElR10UErrorCode(ptr noundef nonnull align 8 dereferenceable(32) %this, i64 noundef %elem, ptr noundef nonnull align 4 dereferenceable(4) %status) #0 comdat align 2 {
entry:
  %this.addr = alloca ptr, align 8
  %elem.addr = alloca i64, align 8
  %status.addr = alloca ptr, align 8
  store ptr %this, ptr %this.addr, align 8
  store i64 %elem, ptr %elem.addr, align 8
  store ptr %status, ptr %status.addr, align 8
  %this1 = load ptr, ptr %this.addr, align 8
  %count = getelementptr inbounds %"class.icu_75::UVector64", ptr %this1, i32 0, i32 1
  %0 = load i32, ptr %count, align 8
  %add = add nsw i32 %0, 1
  %1 = load ptr, ptr %status.addr, align 8
  %call = call noundef signext i8 @_ZN6icu_759UVector6414ensureCapacityEiR10UErrorCode(ptr noundef nonnull align 8 dereferenceable(32) %this1, i32 noundef %add, ptr noundef nonnull align 4 dereferenceable(4) %1)
  %tobool = icmp ne i8 %call, 0
  br i1 %tobool, label %if.then, label %if.end

if.then:                                          ; preds = %entry
  %2 = load i64, ptr %elem.addr, align 8
  %elements = getelementptr inbounds %"class.icu_75::UVector64", ptr %this1, i32 0, i32 4
  %3 = load ptr, ptr %elements, align 8
  %count2 = getelementptr inbounds %"class.icu_75::UVector64", ptr %this1, i32 0, i32 1
  %4 = load i32, ptr %count2, align 8
  %idxprom = sext i32 %4 to i64
  %arrayidx = getelementptr inbounds i64, ptr %3, i64 %idxprom
  store i64 %2, ptr %arrayidx, align 8
  %count3 = getelementptr inbounds %"class.icu_75::UVector64", ptr %this1, i32 0, i32 1
  %5 = load i32, ptr %count3, align 8
  %inc = add nsw i32 %5, 1
  store i32 %inc, ptr %count3, align 8
  br label %if.end

if.end:                                           ; preds = %if.then, %entry
  ret void
}

; Function Attrs: mustprogress nounwind uwtable
define linkonce_odr noundef i64 @_ZN6icu_7516CollationBuilder17nodeFromNextIndexEi(i32 noundef %next) #3 comdat align 2 {
entry:
  %next.addr = alloca i32, align 4
  store i32 %next, ptr %next.addr, align 4
  %0 = load i32, ptr %next.addr, align 4
  %shl = shl i32 %0, 8
  %conv = sext i32 %shl to i64
  ret i64 %conv
}

; Function Attrs: mustprogress nounwind uwtable
define linkonce_odr noundef i64 @_ZN6icu_7516CollationBuilder21nodeFromPreviousIndexEi(i32 noundef %previous) #3 comdat align 2 {
entry:
  %previous.addr = alloca i32, align 4
  store i32 %previous, ptr %previous.addr, align 4
  %0 = load i32, ptr %previous.addr, align 4
  %conv = sext i32 %0 to i64
  %shl = shl i64 %conv, 28
  ret i64 %shl
}

; Function Attrs: mustprogress nounwind uwtable
define linkonce_odr noundef i32 @_ZNK6icu_759UVector644sizeEv(ptr noundef nonnull align 8 dereferenceable(32) %this) #3 comdat align 2 {
entry:
  %this.addr = alloca ptr, align 8
  store ptr %this, ptr %this.addr, align 8
  %this1 = load ptr, ptr %this.addr, align 8
  %count = getelementptr inbounds %"class.icu_75::UVector64", ptr %this1, i32 0, i32 1
  %0 = load i32, ptr %count, align 8
  ret i32 %0
}

; Function Attrs: mustprogress nounwind uwtable
define internal noundef signext i8 @_ZL9U_FAILURE10UErrorCode(i32 noundef %code) #3 {
entry:
  %code.addr = alloca i32, align 4
  store i32 %code, ptr %code.addr, align 4
  %0 = load i32, ptr %code.addr, align 4
  %cmp = icmp sgt i32 %0, 0
  %conv = zext i1 %cmp to i8
  ret i8 %conv
}

; Function Attrs: mustprogress uwtable
define noundef i32 @_ZN6icu_7516CollationBuilder17insertNodeBetweenEiilR10UErrorCode(ptr noundef nonnull align 8 dereferenceable(616) %this, i32 noundef %index, i32 noundef %nextIndex, i64 noundef %node, ptr noundef nonnull align 4 dereferenceable(4) %errorCode) #0 align 2 {
entry:
  %retval = alloca i32, align 4
  %this.addr = alloca ptr, align 8
  %index.addr = alloca i32, align 4
  %nextIndex.addr = alloca i32, align 4
  %node.addr = alloca i64, align 8
  %errorCode.addr = alloca ptr, align 8
  %newIndex = alloca i32, align 4
  store ptr %this, ptr %this.addr, align 8
  store i32 %index, ptr %index.addr, align 4
  store i32 %nextIndex, ptr %nextIndex.addr, align 4
  store i64 %node, ptr %node.addr, align 8
  store ptr %errorCode, ptr %errorCode.addr, align 8
  %this1 = load ptr, ptr %this.addr, align 8
  %0 = load ptr, ptr %errorCode.addr, align 8
  %1 = load i32, ptr %0, align 4
  %call = call noundef signext i8 @_ZL9U_FAILURE10UErrorCode(i32 noundef %1)
  %tobool = icmp ne i8 %call, 0
  br i1 %tobool, label %if.then, label %if.end

if.then:                                          ; preds = %entry
  store i32 0, ptr %retval, align 4
  br label %return

if.end:                                           ; preds = %entry
  %nodes = getelementptr inbounds %"class.icu_75::CollationBuilder", ptr %this1, i32 0, i32 17
  %call2 = call noundef i32 @_ZNK6icu_759UVector644sizeEv(ptr noundef nonnull align 8 dereferenceable(32) %nodes)
  store i32 %call2, ptr %newIndex, align 4
  %2 = load i32, ptr %index.addr, align 4
  %call3 = call noundef i64 @_ZN6icu_7516CollationBuilder21nodeFromPreviousIndexEi(i32 noundef %2)
  %3 = load i32, ptr %nextIndex.addr, align 4
  %call4 = call noundef i64 @_ZN6icu_7516CollationBuilder17nodeFromNextIndexEi(i32 noundef %3)
  %or = or i64 %call3, %call4
  %4 = load i64, ptr %node.addr, align 8
  %or5 = or i64 %4, %or
  store i64 %or5, ptr %node.addr, align 8
  %nodes6 = getelementptr inbounds %"class.icu_75::CollationBuilder", ptr %this1, i32 0, i32 17
  %5 = load i64, ptr %node.addr, align 8
  %6 = load ptr, ptr %errorCode.addr, align 8
  call void @_ZN6icu_759UVector6410addElementElR10UErrorCode(ptr noundef nonnull align 8 dereferenceable(32) %nodes6, i64 noundef %5, ptr noundef nonnull align 4 dereferenceable(4) %6)
  %7 = load ptr, ptr %errorCode.addr, align 8
  %8 = load i32, ptr %7, align 4
  %call7 = call noundef signext i8 @_ZL9U_FAILURE10UErrorCode(i32 noundef %8)
  %tobool8 = icmp ne i8 %call7, 0
  br i1 %tobool8, label %if.then9, label %if.end10

if.then9:                                         ; preds = %if.end
  store i32 0, ptr %retval, align 4
  br label %return

if.end10:                                         ; preds = %if.end
  %nodes11 = getelementptr inbounds %"class.icu_75::CollationBuilder", ptr %this1, i32 0, i32 17
  %9 = load i32, ptr %index.addr, align 4
  %call12 = call noundef i64 @_ZNK6icu_759UVector6410elementAtiEi(ptr noundef nonnull align 8 dereferenceable(32) %nodes11, i32 noundef %9)
  store i64 %call12, ptr %node.addr, align 8
  %nodes13 = getelementptr inbounds %"class.icu_75::CollationBuilder", ptr %this1, i32 0, i32 17
  %10 = load i64, ptr %node.addr, align 8
  %11 = load i32, ptr %newIndex, align 4
  %call14 = call noundef i64 @_ZN6icu_7516CollationBuilder19changeNodeNextIndexEli(i64 noundef %10, i32 noundef %11)
  %12 = load i32, ptr %index.addr, align 4
  call void @_ZN6icu_759UVector6412setElementAtEli(ptr noundef nonnull align 8 dereferenceable(32) %nodes13, i64 noundef %call14, i32 noundef %12)
  %13 = load i32, ptr %nextIndex.addr, align 4
  %cmp = icmp ne i32 %13, 0
  br i1 %cmp, label %if.then15, label %if.end20

if.then15:                                        ; preds = %if.end10
  %nodes16 = getelementptr inbounds %"class.icu_75::CollationBuilder", ptr %this1, i32 0, i32 17
  %14 = load i32, ptr %nextIndex.addr, align 4
  %call17 = call noundef i64 @_ZNK6icu_759UVector6410elementAtiEi(ptr noundef nonnull align 8 dereferenceable(32) %nodes16, i32 noundef %14)
  store i64 %call17, ptr %node.addr, align 8
  %nodes18 = getelementptr inbounds %"class.icu_75::CollationBuilder", ptr %this1, i32 0, i32 17
  %15 = load i64, ptr %node.addr, align 8
  %16 = load i32, ptr %newIndex, align 4
  %call19 = call noundef i64 @_ZN6icu_7516CollationBuilder23changeNodePreviousIndexEli(i64 noundef %15, i32 noundef %16)
  %17 = load i32, ptr %nextIndex.addr, align 4
  call void @_ZN6icu_759UVector6412setElementAtEli(ptr noundef nonnull align 8 dereferenceable(32) %nodes18, i64 noundef %call19, i32 noundef %17)
  br label %if.end20

if.end20:                                         ; preds = %if.then15, %if.end10
  %18 = load i32, ptr %newIndex, align 4
  store i32 %18, ptr %retval, align 4
  br label %return

return:                                           ; preds = %if.end20, %if.then9, %if.then
  %19 = load i32, ptr %retval, align 4
  ret i32 %19
}