; Function Attrs: mustprogress uwtable
define noundef i32 @_ZN6icu_7516CollationBuilder17insertNodeBetweenEiilR10UErrorCode(ptr noundef nonnull align 8 dereferenceable(616) %this, i32 noundef %index, i32 noundef %nextIndex, i64 noundef %node, ptr noundef nonnull align 4 dereferenceable(4) %errorCode) local_unnamed_addr #0 align 2 {
entry:
  %0 = load i32, ptr %errorCode, align 4
  %cmp.i = icmp slt i32 %0, 1
  br i1 %cmp.i, label %if.end, label %return

if.end:                                           ; preds = %entry
  %nodes = getelementptr inbounds i8, ptr %this, i64 584
  %count.i = getelementptr inbounds i8, ptr %this, i64 592
  %1 = load i32, ptr %count.i, align 8
  %conv.i13 = sext i32 %index to i64
  %shl.i = shl nsw i64 %conv.i13, 28
  %shl.i14 = shl i32 %nextIndex, 8
  %conv.i15 = sext i32 %shl.i14 to i64
  %or = or i64 %shl.i, %node
  %or5 = or i64 %or, %conv.i15
  %cmp.i.i = icmp slt i32 %1, -1
  %capacity.i.i = getelementptr inbounds i8, ptr %this, i64 596
  %2 = load i32, ptr %capacity.i.i, align 4
  %cmp2.not.i.i = icmp sle i32 %2, %1
  %or.cond.i.i = select i1 %cmp.i.i, i1 true, i1 %cmp2.not.i.i
  br i1 %or.cond.i.i, label %_ZN6icu_759UVector6414ensureCapacityEiR10UErrorCode.exit.i, label %if.then.i

_ZN6icu_759UVector6414ensureCapacityEiR10UErrorCode.exit.i: ; preds = %if.end
  %add.i = add nsw i32 %1, 1
  %call.i.i = tail call noundef signext i8 @_ZN6icu_759UVector6414expandCapacityEiR10UErrorCode(ptr noundef nonnull align 8 dereferenceable(32) %nodes, i32 noundef %add.i, ptr noundef nonnull align 4 dereferenceable(4) %errorCode)
  %tobool.not.i = icmp eq i8 %call.i.i, 0
  br i1 %tobool.not.i, label %_ZN6icu_759UVector6410addElementElR10UErrorCode.exit, label %_ZN6icu_759UVector6414ensureCapacityEiR10UErrorCode.exit.if.then_crit_edge.i

_ZN6icu_759UVector6414ensureCapacityEiR10UErrorCode.exit.if.then_crit_edge.i: ; preds = %_ZN6icu_759UVector6414ensureCapacityEiR10UErrorCode.exit.i
  %.pre.i = load i32, ptr %count.i, align 8
  br label %if.then.i

if.then.i:                                        ; preds = %_ZN6icu_759UVector6414ensureCapacityEiR10UErrorCode.exit.if.then_crit_edge.i, %if.end
  %3 = phi i32 [ %.pre.i, %_ZN6icu_759UVector6414ensureCapacityEiR10UErrorCode.exit.if.then_crit_edge.i ], [ %1, %if.end ]
  %elements.i = getelementptr inbounds i8, ptr %this, i64 608
  %4 = load ptr, ptr %elements.i, align 8
  %idxprom.i = sext i32 %3 to i64
  %arrayidx.i = getelementptr inbounds i64, ptr %4, i64 %idxprom.i
  store i64 %or5, ptr %arrayidx.i, align 8
  %5 = load i32, ptr %count.i, align 8
  %inc.i = add nsw i32 %5, 1
  store i32 %inc.i, ptr %count.i, align 8
  br label %_ZN6icu_759UVector6410addElementElR10UErrorCode.exit

_ZN6icu_759UVector6410addElementElR10UErrorCode.exit: ; preds = %_ZN6icu_759UVector6414ensureCapacityEiR10UErrorCode.exit.i, %if.then.i
  %6 = load i32, ptr %errorCode, align 4
  %cmp.i17 = icmp slt i32 %6, 1
  br i1 %cmp.i17, label %if.end10, label %return

if.end10:                                         ; preds = %_ZN6icu_759UVector6410addElementElR10UErrorCode.exit
  %cmp.i19 = icmp sgt i32 %index, -1
  %7 = load i32, ptr %count.i, align 8
  %cmp2.i = icmp sgt i32 %7, %index
  %or.cond.i = select i1 %cmp.i19, i1 %cmp2.i, i1 false
  br i1 %or.cond.i, label %cond.true.i, label %_ZNK6icu_759UVector6410elementAtiEi.exit

cond.true.i:                                      ; preds = %if.end10
  %elements.i21 = getelementptr inbounds i8, ptr %this, i64 608
  %8 = load ptr, ptr %elements.i21, align 8
  %idxprom.i22 = zext nneg i32 %index to i64
  %arrayidx.i23 = getelementptr inbounds i64, ptr %8, i64 %idxprom.i22
  %9 = load i64, ptr %arrayidx.i23, align 8
  %10 = and i64 %9, -268435201
  br label %_ZNK6icu_759UVector6410elementAtiEi.exit

_ZNK6icu_759UVector6410elementAtiEi.exit:         ; preds = %if.end10, %cond.true.i
  %cond.i = phi i64 [ %10, %cond.true.i ], [ 0, %if.end10 ]
  %shl.i.i = shl i32 %1, 8
  %conv.i.i = sext i32 %shl.i.i to i64
  %or.i = or i64 %cond.i, %conv.i.i
  tail call void @_ZN6icu_759UVector6412setElementAtEli(ptr noundef nonnull align 8 dereferenceable(32) %nodes, i64 noundef %or.i, i32 noundef %index)
  %cmp.not = icmp eq i32 %nextIndex, 0
  br i1 %cmp.not, label %return, label %if.then15

if.then15:                                        ; preds = %_ZNK6icu_759UVector6410elementAtiEi.exit
  %cmp.i24 = icmp sgt i32 %nextIndex, -1
  %11 = load i32, ptr %count.i, align 8
  %cmp2.i26 = icmp sgt i32 %11, %nextIndex
  %or.cond.i27 = select i1 %cmp.i24, i1 %cmp2.i26, i1 false
  br i1 %or.cond.i27, label %cond.true.i29, label %_ZNK6icu_759UVector6410elementAtiEi.exit33

cond.true.i29:                                    ; preds = %if.then15
  %elements.i30 = getelementptr inbounds i8, ptr %this, i64 608
  %12 = load ptr, ptr %elements.i30, align 8
  %idxprom.i31 = zext nneg i32 %nextIndex to i64
  %arrayidx.i32 = getelementptr inbounds i64, ptr %12, i64 %idxprom.i31
  %13 = load i64, ptr %arrayidx.i32, align 8
  %14 = and i64 %13, -281474708275201
  br label %_ZNK6icu_759UVector6410elementAtiEi.exit33

_ZNK6icu_759UVector6410elementAtiEi.exit33:       ; preds = %if.then15, %cond.true.i29
  %cond.i28 = phi i64 [ %14, %cond.true.i29 ], [ 0, %if.then15 ]
  %conv.i.i35 = sext i32 %1 to i64
  %shl.i.i36 = shl nsw i64 %conv.i.i35, 28
  %or.i37 = or i64 %cond.i28, %shl.i.i36
  tail call void @_ZN6icu_759UVector6412setElementAtEli(ptr noundef nonnull align 8 dereferenceable(32) %nodes, i64 noundef %or.i37, i32 noundef %nextIndex)
  br label %return

return:                                           ; preds = %_ZNK6icu_759UVector6410elementAtiEi.exit, %_ZNK6icu_759UVector6410elementAtiEi.exit33, %_ZN6icu_759UVector6410addElementElR10UErrorCode.exit, %entry
  %retval.0 = phi i32 [ 0, %entry ], [ 0, %_ZN6icu_759UVector6410addElementElR10UErrorCode.exit ], [ %1, %_ZNK6icu_759UVector6410elementAtiEi.exit33 ], [ %1, %_ZNK6icu_759UVector6410elementAtiEi.exit ]
  ret i32 %retval.0
}